; Function Attrs: mustprogress uwtable
define dso_local void @_ZN17FileLineSingleton15filenameLettersB5cxx11Et(ptr dead_on_unwind noalias writable sret(%"class.std::__cxx11::basic_string") align 8 %0, i16 noundef zeroext %1) #3 align 2 personality ptr @__gxx_personality_v0 {
  %3 = alloca [17 x i8], align 16
  %4 = alloca %"class.std::allocator", align 1
  %5 = getelementptr inbounds i8, ptr %3, i64 15
  store i8 0, ptr %5, align 1
  %6 = zext i16 %1 to i32
  br label %7

7:                                                ; preds = %7, %2
  %.08 = phi i32 [ %6, %2 ], [ %12, %7 ]
  %.0 = phi ptr [ %5, %2 ], [ %11, %7 ]
  %8 = urem i32 %.08, 26
  %9 = trunc i32 %8 to i8
  %10 = add nuw nsw i8 %9, 97
  %11 = getelementptr inbounds i8, ptr %.0, i64 -1
  store i8 %10, ptr %11, align 1
  %12 = udiv i32 %.08, 26
  %.not = icmp ult i32 %.08, 26
  br i1 %.not, label %13, label %7, !llvm.loop !5

13:                                               ; preds = %7
  call void @_ZNSaIcEC1Ev(ptr noundef nonnull align 1 dereferenceable(1) %4) #20
  %14 = invoke noundef ptr @_ZNSt7__cxx1112basic_stringIcSt11char_traitsIcESaIcEE13_M_local_dataEv(ptr noundef nonnull align 8 dereferenceable(32) %0)
          to label %.noexc unwind label %19

.noexc:                                           ; preds = %13
  invoke void @_ZNSt7__cxx1112basic_stringIcSt11char_traitsIcESaIcEE12_Alloc_hiderC1EPcRKS3_(ptr noundef nonnull align 8 dereferenceable(8) %0, ptr noundef %14, ptr noundef nonnull align 1 dereferenceable(1) %4)
          to label %.noexc9 unwind label %19

.noexc9:                                          ; preds = %.noexc
  %15 = call noundef i64 @strlen(ptr noundef nonnull dereferenceable(1) %11) #20
  %16 = getelementptr inbounds i8, ptr %11, i64 %15
  invoke void @_ZNSt7__cxx1112basic_stringIcSt11char_traitsIcESaIcEE12_M_constructIPKcEEvT_S8_St20forward_iterator_tag(ptr noundef nonnull align 8 dereferenceable(32) %0, ptr noundef nonnull %11, ptr noundef nonnull %16)
          to label %_ZNSt7__cxx1112basic_stringIcSt11char_traitsIcESaIcEEC2IS3_EEPKcRKS3_.exit unwind label %17

17:                                               ; preds = %.noexc9
  %18 = landingpad { ptr, i32 }
          cleanup
  call void @_ZNSaIcED2Ev(ptr noundef nonnull align 1 dereferenceable(1) %0) #20
  br label %.body

_ZNSt7__cxx1112basic_stringIcSt11char_traitsIcESaIcEEC2IS3_EEPKcRKS3_.exit: ; preds = %.noexc9
  call void @_ZNSaIcED1Ev(ptr noundef nonnull align 1 dereferenceable(1) %4) #20
  ret void

19:                                               ; preds = %.noexc, %13
  %20 = landingpad { ptr, i32 }
          cleanup
  br label %.body

.body:                                            ; preds = %17, %19
  %eh.lpad-body = phi { ptr, i32 } [ %20, %19 ], [ %18, %17 ]
  call void @_ZNSaIcED1Ev(ptr noundef nonnull align 1 dereferenceable(1) %4) #20
  resume { ptr, i32 } %eh.lpad-body
}